target datalayout = "e-m:e-p270:32:32-p271:32:32-p272:64:64-i64:64-i128:128-f80:128-n8:16:32:64-S128"
target triple = "x86_64-pc-linux-gnu"

%struct.lua_State = type { %struct.GCRef, i8, i8, i8, i8, %struct.MRef, %struct.GCRef, ptr, ptr, %struct.MRef, %struct.MRef, %struct.GCRef, %struct.GCRef, ptr, i32 }
%struct.MRef = type { i64 }
%struct.GCRef = type { i64 }
%union.TValue = type { i64 }
%struct.global_State = type { ptr, ptr, %struct.GCState, %struct.GCstr, i8, i8, i8, i8, %struct.StrInternState, i32, %struct.GCRef, %struct.SBuf, %union.TValue, %union.TValue, %struct.Node, %union.TValue, %struct.GCupval, i32, i32, ptr, ptr, ptr, i32, i32, %struct.GCRef, %struct.MRef, %struct.MRef, %struct.PRNGState, [39 x %struct.GCRef] }
%struct.GCState = type { i64, i64, i8, i8, i8, i8, i32, %struct.GCRef, %struct.MRef, %struct.GCRef, %struct.GCRef, %struct.GCRef, %struct.GCRef, i64, i64, i32, i32, %struct.MRef }
%struct.GCstr = type { %struct.GCRef, i8, i8, i8, i8, i32, i32, i32 }
%struct.StrInternState = type { ptr, i32, i32, i32, i8, i8, i8, i8, i64 }
%struct.SBuf = type { ptr, ptr, ptr, %struct.MRef }
%struct.Node = type { %union.TValue, %union.TValue, %struct.MRef }
%struct.GCupval = type { %struct.GCRef, i8, i8, i8, i8, %union.anon, %struct.MRef, i32 }
%union.anon = type { %struct.anon.1 }
%struct.anon.1 = type { %struct.GCRef, %struct.GCRef }
%struct.PRNGState = type { [4 x i64] }

@.str.1 = private unnamed_addr constant [24 x i8] c"store to dead GC object\00", align 1

; Function Attrs: alwaysinline nounwind uwtable
define internal void @checklivetv(ptr noundef %0, ptr noundef %1, ptr noundef %2) #4 {
  %4 = alloca ptr, align 8
  %5 = alloca ptr, align 8
  %6 = alloca ptr, align 8
  store ptr %0, ptr %4, align 8, !tbaa !4
  store ptr %1, ptr %5, align 8, !tbaa !22
  store ptr %2, ptr %6, align 8, !tbaa !20
  ret void
}

; Function Attrs: alwaysinline nounwind uwtable
define internal void @setgcVraw(ptr noundef %0, ptr noundef %1, i32 noundef %2) #4 {
  %4 = alloca ptr, align 8
  %5 = alloca ptr, align 8
  %6 = alloca i32, align 4
  store ptr %0, ptr %4, align 8, !tbaa !22
  store ptr %1, ptr %5, align 8, !tbaa !67
  store i32 %2, ptr %6, align 4, !tbaa !16
  %7 = load ptr, ptr %5, align 8, !tbaa !67
  %8 = ptrtoint ptr %7 to i64
  %9 = load i32, ptr %6, align 4, !tbaa !16
  %10 = zext i32 %9 to i64
  %11 = shl i64 %10, 47
  %12 = or i64 %8, %11
  %13 = load ptr, ptr %4, align 8, !tbaa !22
  %14 = getelementptr inbounds nuw %struct.GCRef, ptr %13, i32 0, i32 0
  store i64 %12, ptr %14, align 8, !tbaa !26
  ret void
}

; Function Attrs: alwaysinline nounwind uwtable
define internal void @setgcV(ptr noundef %0, ptr noundef %1, ptr noundef %2, i32 noundef %3) #4 {
  %5 = alloca ptr, align 8
  %6 = alloca ptr, align 8
  %7 = alloca ptr, align 8
  %8 = alloca i32, align 4
  store ptr %0, ptr %5, align 8, !tbaa !4
  store ptr %1, ptr %6, align 8, !tbaa !22
  store ptr %2, ptr %7, align 8, !tbaa !67
  store i32 %3, ptr %8, align 4, !tbaa !16
  %9 = load ptr, ptr %6, align 8, !tbaa !22
  %10 = load ptr, ptr %7, align 8, !tbaa !67
  %11 = load i32, ptr %8, align 4, !tbaa !16
  call void @setgcVraw(ptr noundef %9, ptr noundef %10, i32 noundef %11)
  %12 = load ptr, ptr %5, align 8, !tbaa !4
  %13 = load ptr, ptr %6, align 8, !tbaa !22
  call void @checklivetv(ptr noundef %12, ptr noundef %13, ptr noundef @.str.1)
  ret void
}

; Function Attrs: alwaysinline nounwind uwtable
define internal void @setstrV(ptr noundef %0, ptr noundef %1, ptr noundef %2) #4 {
  %4 = alloca ptr, align 8
  %5 = alloca ptr, align 8
  %6 = alloca ptr, align 8
  store ptr %0, ptr %4, align 8, !tbaa !4
  store ptr %1, ptr %5, align 8, !tbaa !22
  store ptr %2, ptr %6, align 8, !tbaa !41
  %7 = load ptr, ptr %4, align 8, !tbaa !4
  %8 = load ptr, ptr %5, align 8, !tbaa !22
  %9 = load ptr, ptr %6, align 8, !tbaa !41
  call void @setgcV(ptr noundef %7, ptr noundef %8, ptr noundef %9, i32 noundef -5)
  ret void
}

; Function Attrs: nounwind uwtable
define dso_local ptr @lua_tolstring(ptr noundef %0, i32 noundef %1, ptr noundef %2) #0 {
  %4 = alloca ptr, align 8
  %5 = alloca ptr, align 8
  %6 = alloca i32, align 4
  %7 = alloca ptr, align 8
  %8 = alloca ptr, align 8
  %9 = alloca ptr, align 8
  %10 = alloca i32, align 4
  store ptr %0, ptr %5, align 8, !tbaa !4
  store i32 %1, ptr %6, align 4, !tbaa !16
  store ptr %2, ptr %7, align 8, !tbaa !39
  call void @llvm.lifetime.start.p0(i64 8, ptr %8) #9
  %11 = load ptr, ptr %5, align 8, !tbaa !4
  %12 = load i32, ptr %6, align 4, !tbaa !16
  %13 = call ptr @index2adr(ptr noundef %11, i32 noundef %12)
  store ptr %13, ptr %8, align 8, !tbaa !22
  call void @llvm.lifetime.start.p0(i64 8, ptr %9) #9
  %14 = load ptr, ptr %8, align 8, !tbaa !22
  %15 = load i64, ptr %14, align 8, !tbaa !26
  %16 = ashr i64 %15, 47
  %17 = trunc i64 %16 to i32
  %18 = icmp eq i32 %17, -5
  %19 = xor i1 %18, true
  %20 = xor i1 %19, true
  %21 = zext i1 %20 to i32
  %22 = sext i32 %21 to i64
  %23 = call i64 @llvm.expect.i64(i64 %22, i64 1)
  %24 = icmp ne i64 %23, 0
  br i1 %24, label %25, label %31

25:                                               ; preds = %3
  %26 = load ptr, ptr %8, align 8, !tbaa !22
  %27 = getelementptr inbounds nuw %struct.GCRef, ptr %26, i32 0, i32 0
  %28 = load i64, ptr %27, align 8, !tbaa !26
  %29 = and i64 %28, 140737488355327
  %30 = inttoptr i64 %29 to ptr
  store ptr %30, ptr %9, align 8, !tbaa !41
  br label %81

31:                                               ; preds = %3
  %32 = load ptr, ptr %8, align 8, !tbaa !22
  %33 = load i64, ptr %32, align 8, !tbaa !26
  %34 = ashr i64 %33, 47
  %35 = trunc i64 %34 to i32
  %36 = icmp ule i32 %35, -14
  br i1 %36, label %37, label %74

37:                                               ; preds = %31
  %38 = load ptr, ptr %5, align 8, !tbaa !4
  %39 = getelementptr inbounds nuw %struct.lua_State, ptr %38, i32 0, i32 5
  %40 = getelementptr inbounds nuw %struct.MRef, ptr %39, i32 0, i32 0
  %41 = load i64, ptr %40, align 8, !tbaa !29
  %42 = inttoptr i64 %41 to ptr
  %43 = getelementptr inbounds nuw %struct.global_State, ptr %42, i32 0, i32 2
  %44 = getelementptr inbounds nuw %struct.GCState, ptr %43, i32 0, i32 0
  %45 = load i64, ptr %44, align 8, !tbaa !43
  %46 = load ptr, ptr %5, align 8, !tbaa !4
  %47 = getelementptr inbounds nuw %struct.lua_State, ptr %46, i32 0, i32 5
  %48 = getelementptr inbounds nuw %struct.MRef, ptr %47, i32 0, i32 0
  %49 = load i64, ptr %48, align 8, !tbaa !29
  %50 = inttoptr i64 %49 to ptr
  %51 = getelementptr inbounds nuw %struct.global_State, ptr %50, i32 0, i32 2
  %52 = getelementptr inbounds nuw %struct.GCState, ptr %51, i32 0, i32 1
  %53 = load i64, ptr %52, align 8, !tbaa !53
  %54 = icmp uge i64 %45, %53
  %55 = xor i1 %54, true
  %56 = xor i1 %55, true
  %57 = zext i1 %56 to i32
  %58 = sext i32 %57 to i64
  %59 = call i64 @llvm.expect.i64(i64 %58, i64 0)
  %60 = icmp ne i64 %59, 0
  br i1 %60, label %61, label %64

61:                                               ; preds = %37
  %62 = load ptr, ptr %5, align 8, !tbaa !4
  %63 = call i32 @lj_gc_step(ptr noundef %62)
  br label %64

64:                                               ; preds = %61, %37
  %65 = load ptr, ptr %5, align 8, !tbaa !4
  %66 = load i32, ptr %6, align 4, !tbaa !16
  %67 = call ptr @index2adr(ptr noundef %65, i32 noundef %66)
  store ptr %67, ptr %8, align 8, !tbaa !22
  %68 = load ptr, ptr %5, align 8, !tbaa !4
  %69 = load ptr, ptr %8, align 8, !tbaa !22
  %70 = call ptr @lj_strfmt_number(ptr noundef %68, ptr noundef %69)
  store ptr %70, ptr %9, align 8, !tbaa !41
  %71 = load ptr, ptr %5, align 8, !tbaa !4
  %72 = load ptr, ptr %8, align 8, !tbaa !22
  %73 = load ptr, ptr %9, align 8, !tbaa !41
  call void @setstrV(ptr noundef %71, ptr noundef %72, ptr noundef %73)
  br label %80

74:                                               ; preds = %31
  %75 = load ptr, ptr %7, align 8, !tbaa !39
  %76 = icmp ne ptr %75, null
  br i1 %76, label %77, label %79

77:                                               ; preds = %74
  %78 = load ptr, ptr %7, align 8, !tbaa !39
  store i64 0, ptr %78, align 8, !tbaa !38
  br label %79

79:                                               ; preds = %77, %74
  store ptr null, ptr %4, align 8
  store i32 1, ptr %10, align 4
  br label %93

80:                                               ; preds = %64
  br label %81

81:                                               ; preds = %80, %25
  %82 = load ptr, ptr %7, align 8, !tbaa !39
  %83 = icmp ne ptr %82, null
  br i1 %83, label %84, label %90

84:                                               ; preds = %81
  %85 = load ptr, ptr %9, align 8, !tbaa !41
  %86 = getelementptr inbounds nuw %struct.GCstr, ptr %85, i32 0, i32 7
  %87 = load i32, ptr %86, align 4, !tbaa !54
  %88 = zext i32 %87 to i64
  %89 = load ptr, ptr %7, align 8, !tbaa !39
  store i64 %88, ptr %89, align 8, !tbaa !38
  br label %90

90:                                               ; preds = %84, %81
  %91 = load ptr, ptr %9, align 8, !tbaa !41
  %92 = getelementptr inbounds %struct.GCstr, ptr %91, i64 1
  store ptr %92, ptr %4, align 8
  store i32 1, ptr %10, align 4
  br label %93

93:                                               ; preds = %90, %79
  call void @llvm.lifetime.end.p0(i64 8, ptr %9) #9
  call void @llvm.lifetime.end.p0(i64 8, ptr %8) #9
  %94 = load ptr, ptr %4, align 8
  ret ptr %94
}